target datalayout = "e-m:e-p270:32:32-p271:32:32-p272:64:64-i64:64-f80:128-n8:16:32:64-S128"
target triple = "x86_64-pc-linux-gnu"

@.str = private unnamed_addr constant [6 x i8] c"%d %d\00", align 1
@.str.1 = private unnamed_addr constant [3 x i8] c"%d\00", align 1
@.str.2 = private unnamed_addr constant [4 x i8] c"%d\0A\00", align 1

; Function Attrs: noinline nounwind uwtable
define dso_local i32 @main() #0 {
  %1 = alloca i32, align 4
  %2 = alloca i32, align 4
  %3 = alloca i32, align 4
  %4 = alloca i32, align 4
  %5 = alloca i32, align 4
  %6 = alloca i32, align 4
  %7 = alloca i32, align 4
  %8 = alloca i32, align 4
  %9 = alloca i32, align 4
  %10 = alloca [100 x [100 x i32]], align 16
  store i32 0, i32* %1, align 4
  store i32 0, i32* %9, align 4
  %11 = call i32 (i8*, ...) @__isoc99_scanf(i8* getelementptr inbounds ([6 x i8], [6 x i8]* @.str, i64 0, i64 0), i32* %2, i32* %3)
  store i32 0, i32* %4, align 4
  br label %12

12:                                               ; preds = %33, %0
  %13 = load i32, i32* %4, align 4
  %14 = load i32, i32* %2, align 4
  %15 = icmp slt i32 %13, %14
  br i1 %15, label %16, label %36

16:                                               ; preds = %12
  store i32 0, i32* %5, align 4
  br label %17

17:                                               ; preds = %29, %16
  %18 = load i32, i32* %5, align 4
  %19 = load i32, i32* %3, align 4
  %20 = icmp slt i32 %18, %19
  br i1 %20, label %21, label %32

21:                                               ; preds = %17
  %22 = load i32, i32* %4, align 4
  %23 = sext i32 %22 to i64
  %24 = getelementptr inbounds [100 x [100 x i32]], [100 x [100 x i32]]* %10, i64 0, i64 %23
  %25 = load i32, i32* %5, align 4
  %26 = sext i32 %25 to i64
  %27 = getelementptr inbounds [100 x i32], [100 x i32]* %24, i64 0, i64 %26
  %28 = call i32 (i8*, ...) @__isoc99_scanf(i8* getelementptr inbounds ([3 x i8], [3 x i8]* @.str.1, i64 0, i64 0), i32* %27)
  br label %29

29:                                               ; preds = %21
  %30 = load i32, i32* %5, align 4
  %31 = add nsw i32 %30, 1
  store i32 %31, i32* %5, align 4
  br label %17

32:                                               ; preds = %17
  br label %33

33:                                               ; preds = %32
  %34 = load i32, i32* %4, align 4
  %35 = add nsw i32 %34, 1
  store i32 %35, i32* %4, align 4
  br label %12

36:                                               ; preds = %12
  store i32 0, i32* %4, align 4
  br label %37

37:                                               ; preds = %241, %36
  %38 = load i32, i32* %9, align 4
  %39 = load i32, i32* %2, align 4
  %40 = load i32, i32* %3, align 4
  %41 = mul nsw i32 %39, %40
  %42 = icmp eq i32 %38, %41
  br i1 %42, label %43, label %44

43:                                               ; preds = %37
  br label %244

44:                                               ; preds = %37
  %45 = load i32, i32* %4, align 4
  store i32 %45, i32* %5, align 4
  br label %46

46:                                               ; preds = %79, %44
  %47 = load i32, i32* %5, align 4
  %48 = load i32, i32* %3, align 4
  %49 = load i32, i32* %4, align 4
  %50 = sub nsw i32 %48, %49
  %51 = icmp slt i32 %47, %50
  br i1 %51, label %52, label %82

52:                                               ; preds = %46
  %53 = load i32, i32* %9, align 4
  %54 = add nsw i32 %53, 1
  store i32 %54, i32* %9, align 4
  %55 = load i32, i32* %9, align 4
  %56 = load i32, i32* %2, align 4
  %57 = load i32, i32* %3, align 4
  %58 = mul nsw i32 %56, %57
  %59 = icmp slt i32 %55, %58
  br i1 %59, label %60, label %69

60:                                               ; preds = %52
  %61 = load i32, i32* %4, align 4
  %62 = sext i32 %61 to i64
  %63 = getelementptr inbounds [100 x [100 x i32]], [100 x [100 x i32]]* %10, i64 0, i64 %62
  %64 = load i32, i32* %5, align 4
  %65 = sext i32 %64 to i64
  %66 = getelementptr inbounds [100 x i32], [100 x i32]* %63, i64 0, i64 %65
  %67 = load i32, i32* %66, align 4
  %68 = call i32 (i8*, ...) @printf(i8* getelementptr inbounds ([4 x i8], [4 x i8]* @.str.2, i64 0, i64 0), i32 %67)
  br label %78

69:                                               ; preds = %52
  %70 = load i32, i32* %4, align 4
  %71 = sext i32 %70 to i64
  %72 = getelementptr inbounds [100 x [100 x i32]], [100 x [100 x i32]]* %10, i64 0, i64 %71
  %73 = load i32, i32* %5, align 4
  %74 = sext i32 %73 to i64
  %75 = getelementptr inbounds [100 x i32], [100 x i32]* %72, i64 0, i64 %74
  %76 = load i32, i32* %75, align 4
  %77 = call i32 (i8*, ...) @printf(i8* getelementptr inbounds ([3 x i8], [3 x i8]* @.str.1, i64 0, i64 0), i32 %76)
  br label %82

78:                                               ; preds = %60
  br label %79

79:                                               ; preds = %78
  %80 = load i32, i32* %5, align 4
  %81 = add nsw i32 %80, 1
  store i32 %81, i32* %5, align 4
  br label %46

82:                                               ; preds = %69, %46
  %83 = load i32, i32* %9, align 4
  %84 = load i32, i32* %2, align 4
  %85 = load i32, i32* %3, align 4
  %86 = mul nsw i32 %84, %85
  %87 = icmp eq i32 %83, %86
  br i1 %87, label %88, label %89

88:                                               ; preds = %82
  br label %244

89:                                               ; preds = %82
  %90 = load i32, i32* %4, align 4
  %91 = add nsw i32 %90, 1
  store i32 %91, i32* %6, align 4
  br label %92

92:                                               ; preds = %131, %89
  %93 = load i32, i32* %6, align 4
  %94 = load i32, i32* %2, align 4
  %95 = load i32, i32* %4, align 4
  %96 = sub nsw i32 %94, %95
  %97 = icmp slt i32 %93, %96
  br i1 %97, label %98, label %134

98:                                               ; preds = %92
  %99 = load i32, i32* %9, align 4
  %100 = add nsw i32 %99, 1
  store i32 %100, i32* %9, align 4
  %101 = load i32, i32* %9, align 4
  %102 = load i32, i32* %2, align 4
  %103 = load i32, i32* %3, align 4
  %104 = mul nsw i32 %102, %103
  %105 = icmp slt i32 %101, %104
  br i1 %105, label %106, label %118

106:                                              ; preds = %98
  %107 = load i32, i32* %6, align 4
  %108 = sext i32 %107 to i64
  %109 = getelementptr inbounds [100 x [100 x i32]], [100 x [100 x i32]]* %10, i64 0, i64 %108
  %110 = load i32, i32* %3, align 4
  %111 = sub nsw i32 %110, 1
  %112 = load i32, i32* %4, align 4
  %113 = sub nsw i32 %111, %112
  %114 = sext i32 %113 to i64
  %115 = getelementptr inbounds [100 x i32], [100 x i32]* %109, i64 0, i64 %114
  %116 = load i32, i32* %115, align 4
  %117 = call i32 (i8*, ...) @printf(i8* getelementptr inbounds ([4 x i8], [4 x i8]* @.str.2, i64 0, i64 0), i32 %116)
  br label %130

118:                                              ; preds = %98
  %119 = load i32, i32* %6, align 4
  %120 = sext i32 %119 to i64
  %121 = getelementptr inbounds [100 x [100 x i32]], [100 x [100 x i32]]* %10, i64 0, i64 %120
  %122 = load i32, i32* %3, align 4
  %123 = sub nsw i32 %122, 1
  %124 = load i32, i32* %4, align 4
  %125 = sub nsw i32 %123, %124
  %126 = sext i32 %125 to i64
  %127 = getelementptr inbounds [100 x i32], [100 x i32]* %121, i64 0, i64 %126
  %128 = load i32, i32* %127, align 4
  %129 = call i32 (i8*, ...) @printf(i8* getelementptr inbounds ([3 x i8], [3 x i8]* @.str.1, i64 0, i64 0), i32 %128)
  br label %134

130:                                              ; preds = %106
  br label %131

131:                                              ; preds = %130
  %132 = load i32, i32* %6, align 4
  %133 = add nsw i32 %132, 1
  store i32 %133, i32* %6, align 4
  br label %92

134:                                              ; preds = %118, %92
  %135 = load i32, i32* %9, align 4
  %136 = load i32, i32* %2, align 4
  %137 = load i32, i32* %3, align 4
  %138 = mul nsw i32 %136, %137
  %139 = icmp eq i32 %135, %138
  br i1 %139, label %140, label %141

140:                                              ; preds = %134
  br label %244

141:                                              ; preds = %134
  %142 = load i32, i32* %3, align 4
  %143 = sub nsw i32 %142, 2
  %144 = load i32, i32* %4, align 4
  %145 = sub nsw i32 %143, %144
  store i32 %145, i32* %7, align 4
  br label %146

146:                                              ; preds = %184, %141
  %147 = load i32, i32* %7, align 4
  %148 = load i32, i32* %4, align 4
  %149 = sub nsw i32 %148, 1
  %150 = icmp sgt i32 %147, %149
  br i1 %150, label %151, label %187

151:                                              ; preds = %146
  %152 = load i32, i32* %9, align 4
  %153 = add nsw i32 %152, 1
  store i32 %153, i32* %9, align 4
  %154 = load i32, i32* %9, align 4
  %155 = load i32, i32* %2, align 4
  %156 = load i32, i32* %3, align 4
  %157 = mul nsw i32 %155, %156
  %158 = icmp slt i32 %154, %157
  br i1 %158, label %159, label %171

159:                                              ; preds = %151
  %160 = load i32, i32* %2, align 4
  %161 = sub nsw i32 %160, 1
  %162 = load i32, i32* %4, align 4
  %163 = sub nsw i32 %161, %162
  %164 = sext i32 %163 to i64
  %165 = getelementptr inbounds [100 x [100 x i32]], [100 x [100 x i32]]* %10, i64 0, i64 %164
  %166 = load i32, i32* %7, align 4
  %167 = sext i32 %166 to i64
  %168 = getelementptr inbounds [100 x i32], [100 x i32]* %165, i64 0, i64 %167
  %169 = load i32, i32* %168, align 4
  %170 = call i32 (i8*, ...) @printf(i8* getelementptr inbounds ([4 x i8], [4 x i8]* @.str.2, i64 0, i64 0), i32 %169)
  br label %183

171:                                              ; preds = %151
  %172 = load i32, i32* %2, align 4
  %173 = sub nsw i32 %172, 1
  %174 = load i32, i32* %4, align 4
  %175 = sub nsw i32 %173, %174
  %176 = sext i32 %175 to i64
  %177 = getelementptr inbounds [100 x [100 x i32]], [100 x [100 x i32]]* %10, i64 0, i64 %176
  %178 = load i32, i32* %7, align 4
  %179 = sext i32 %178 to i64
  %180 = getelementptr inbounds [100 x i32], [100 x i32]* %177, i64 0, i64 %179
  %181 = load i32, i32* %180, align 4
  %182 = call i32 (i8*, ...) @printf(i8* getelementptr inbounds ([3 x i8], [3 x i8]* @.str.1, i64 0, i64 0), i32 %181)
  br label %187

183:                                              ; preds = %159
  br label %184

184:                                              ; preds = %183
  %185 = load i32, i32* %7, align 4
  %186 = add nsw i32 %185, -1
  store i32 %186, i32* %7, align 4
  br label %146

187:                                              ; preds = %171, %146
  %188 = load i32, i32* %9, align 4
  %189 = load i32, i32* %2, align 4
  %190 = load i32, i32* %3, align 4
  %191 = mul nsw i32 %189, %190
  %192 = icmp eq i32 %188, %191
  br i1 %192, label %193, label %194

193:                                              ; preds = %187
  br label %244

194:                                              ; preds = %187
  %195 = load i32, i32* %2, align 4
  %196 = sub nsw i32 %195, 2
  %197 = load i32, i32* %4, align 4
  %198 = sub nsw i32 %196, %197
  store i32 %198, i32* %8, align 4
  br label %199

199:                                              ; preds = %230, %194
  %200 = load i32, i32* %8, align 4
  %201 = load i32, i32* %4, align 4
  %202 = icmp sgt i32 %200, %201
  br i1 %202, label %203, label %233

203:                                              ; preds = %199
  %204 = load i32, i32* %9, align 4
  %205 = add nsw i32 %204, 1
  store i32 %205, i32* %9, align 4
  %206 = load i32, i32* %9, align 4
  %207 = load i32, i32* %2, align 4
  %208 = load i32, i32* %3, align 4
  %209 = mul nsw i32 %207, %208
  %210 = icmp slt i32 %206, %209
  br i1 %210, label %211, label %220

211:                                              ; preds = %203
  %212 = load i32, i32* %8, align 4
  %213 = sext i32 %212 to i64
  %214 = getelementptr inbounds [100 x [100 x i32]], [100 x [100 x i32]]* %10, i64 0, i64 %213
  %215 = load i32, i32* %4, align 4
  %216 = sext i32 %215 to i64
  %217 = getelementptr inbounds [100 x i32], [100 x i32]* %214, i64 0, i64 %216
  %218 = load i32, i32* %217, align 4
  %219 = call i32 (i8*, ...) @printf(i8* getelementptr inbounds ([4 x i8], [4 x i8]* @.str.2, i64 0, i64 0), i32 %218)
  br label %229

220:                                              ; preds = %203
  %221 = load i32, i32* %8, align 4
  %222 = sext i32 %221 to i64
  %223 = getelementptr inbounds [100 x [100 x i32]], [100 x [100 x i32]]* %10, i64 0, i64 %222
  %224 = load i32, i32* %4, align 4
  %225 = sext i32 %224 to i64
  %226 = getelementptr inbounds [100 x i32], [100 x i32]* %223, i64 0, i64 %225
  %227 = load i32, i32* %226, align 4
  %228 = call i32 (i8*, ...) @printf(i8* getelementptr inbounds ([3 x i8], [3 x i8]* @.str.1, i64 0, i64 0), i32 %227)
  br label %233

229:                                              ; preds = %211
  br label %230

230:                                              ; preds = %229
  %231 = load i32, i32* %8, align 4
  %232 = add nsw i32 %231, -1
  store i32 %232, i32* %8, align 4
  br label %199

233:                                              ; preds = %220, %199
  %234 = load i32, i32* %9, align 4
  %235 = load i32, i32* %2, align 4
  %236 = load i32, i32* %3, align 4
  %237 = mul nsw i32 %235, %236
  %238 = icmp eq i32 %234, %237
  br i1 %238, label %239, label %240

239:                                              ; preds = %233
  br label %244

240:                                              ; preds = %233
  br label %241

241:                                              ; preds = %240
  %242 = load i32, i32* %4, align 4
  %243 = add nsw i32 %242, 1
  store i32 %243, i32* %4, align 4
  br label %37

244:                                              ; preds = %239, %193, %140, %88, %43
  ret i32 0
}